(lp0
S'MajorLinkerVersion'
p1
aS'FileAlignment'
p2
aS'SizeOfStackCommit'
p3
aS'SizeOfImage'
p4
aS'SizeOfStackReserve'
p5
aS'SizeOfHeaders'
p6
aS'MinorOperatingSystemVersion'
p7
aS'MajorImageVersion'
p8
aS'NumberOfSymbols'
p9
aS'SizeOfInitializedData'
p10
aS'PointerToSymbolTable'
p11
aS'DllCharacteristics'
p12
aS'SizeOfHeapReserve'
p13
aS'NumberOfSections'
p14
aS'MajorOperatingSystemVersion'
p15
a.